target datalayout = "e-m:e-p270:32:32-p271:32:32-p272:64:64-i64:64-i128:128-f80:128-n8:16:32:64-S128"
target triple = "x86_64-pc-linux-gnu"

%struct.mbedtls_ssl_context = type { ptr, i32, i32, i32, i32, i32, ptr, ptr, ptr, ptr, ptr, ptr, ptr, ptr, ptr, ptr, ptr, ptr, ptr, ptr, ptr, ptr, ptr, ptr, ptr, ptr, ptr, ptr, ptr, ptr, ptr, ptr, ptr, i32, i64, i64, i16, i64, i64, i64, i64, i32, i32, i8, i8, i32, i8, ptr, ptr, ptr, ptr, ptr, ptr, ptr, i32, i64, i64, [8 x i8], i16, ptr, ptr, ptr, i64, i32, i64, [12 x i8], [12 x i8], [32 x i8], i8, i8, ptr, ptr, %union.mbedtls_ssl_user_data_t }
%union.mbedtls_ssl_user_data_t = type { i64 }
%struct.mbedtls_ssl_config = type { i32, i32, i8, i8, i8, i8, i8, i8, i8, i8, i8, i8, i16, i8, i8, i8, ptr, i32, ptr, ptr, ptr, ptr, ptr, ptr, ptr, ptr, ptr, ptr, ptr, ptr, ptr, ptr, ptr, ptr, ptr, ptr, ptr, i64, ptr, ptr, ptr, ptr, ptr, ptr, ptr, ptr, %struct.mbedtls_mpi, %struct.mbedtls_mpi, ptr, i64, ptr, i64, ptr, i32, i32, i32, i32, [8 x i8], i32, i32, %union.mbedtls_ssl_user_data_t, ptr, ptr }
%struct.mbedtls_mpi = type { ptr, i16, i16 }
%struct.mbedtls_md_context_t = type { ptr, ptr, ptr }
%struct.mbedtls_ssl_handshake_params = type { i8, i8, i8, i8, i8, i32, i8, i8, i8, i8, ptr, ptr, ptr, ptr, ptr, i8, i8, i8, i8, i16, i16, [20 x i16], ptr, ptr, %struct.mbedtls_dhm_context, %struct.mbedtls_ecdh_context, i16, i64, i32, i8, [1024 x i8], i64, ptr, ptr, i64, i16, ptr, ptr, ptr, ptr, %struct.anon, ptr, i16, i8, i32, i32, i32, ptr, ptr, ptr, i32, ptr, [8 x i8], i8, [32 x i8], i8, i16, %struct.mbedtls_md_context_t, %struct.mbedtls_md_context_t, i16, i8, %union.anon.1, [64 x i8], [1076 x i8], i64, i32, i32, i8, ptr, ptr, %union.anon.4, %struct.mbedtls_ssl_tls13_handshake_secrets, ptr, i64, ptr }
%struct.mbedtls_dhm_context = type { %struct.mbedtls_mpi, %struct.mbedtls_mpi, %struct.mbedtls_mpi, %struct.mbedtls_mpi, %struct.mbedtls_mpi, %struct.mbedtls_mpi, %struct.mbedtls_mpi, %struct.mbedtls_mpi, %struct.mbedtls_mpi, %struct.mbedtls_mpi }
%struct.mbedtls_ecdh_context = type { i8, i32, i32, %union.anon }
%union.anon = type { %struct.mbedtls_ecdh_context_mbed }
%struct.mbedtls_ecdh_context_mbed = type { %struct.mbedtls_ecp_group, %struct.mbedtls_mpi, %struct.mbedtls_ecp_point, %struct.mbedtls_ecp_point, %struct.mbedtls_mpi }
%struct.mbedtls_ecp_group = type { i32, %struct.mbedtls_mpi, %struct.mbedtls_mpi, %struct.mbedtls_mpi, %struct.mbedtls_ecp_point, %struct.mbedtls_mpi, i64, i64, i32, ptr, ptr, ptr, ptr, ptr, i64 }
%struct.mbedtls_ecp_point = type { %struct.mbedtls_mpi, %struct.mbedtls_mpi, %struct.mbedtls_mpi }
%struct.anon = type { i64, i8, [4 x %struct.mbedtls_ssl_hs_buffer], %struct.anon.0 }
%struct.mbedtls_ssl_hs_buffer = type { i8, ptr, i64 }
%struct.anon.0 = type { ptr, i64, i32 }
%union.anon.1 = type { %struct.anon.2 }
%struct.anon.2 = type { i8, [64 x i8], i64 }
%union.anon.4 = type { [64 x i8] }
%struct.mbedtls_ssl_tls13_handshake_secrets = type { [64 x i8], [64 x i8] }

@.str = private unnamed_addr constant [121 x i8] c"generated/home/dtcxzyw/WorkSpace/Projects/compilers/llvm-opt-benchmark/bench/lief/bench_build/mbed_src/library/ssl_msg.c\00", align 1
@.str.77 = private unnamed_addr constant [16 x i8] c"update_checksum\00", align 1

; Function Attrs: nounwind uwtable
define internal void @ssl_buffering_free_slot(ptr noundef %0, i8 noundef zeroext %1) #0 {
  %3 = alloca ptr, align 8
  %4 = alloca i8, align 1
  %5 = alloca ptr, align 8
  %6 = alloca ptr, align 8
  %7 = alloca i32, align 4
  store ptr %0, ptr %3, align 8, !tbaa !3
  store i8 %1, ptr %4, align 1, !tbaa !38
  call void @llvm.lifetime.start.p0(i64 8, ptr %5) #11
  %8 = load ptr, ptr %3, align 8, !tbaa !3
  %9 = getelementptr inbounds nuw %struct.mbedtls_ssl_context, ptr %8, i32 0, i32 16
  %10 = load ptr, ptr %9, align 8, !tbaa !81
  store ptr %10, ptr %5, align 8, !tbaa !136
  call void @llvm.lifetime.start.p0(i64 8, ptr %6) #11
  %11 = load ptr, ptr %5, align 8, !tbaa !136
  %12 = getelementptr inbounds nuw %struct.mbedtls_ssl_handshake_params, ptr %11, i32 0, i32 40
  %13 = getelementptr inbounds nuw %struct.anon, ptr %12, i32 0, i32 2
  %14 = load i8, ptr %4, align 1, !tbaa !38
  %15 = zext i8 %14 to i64
  %16 = getelementptr inbounds nuw [4 x %struct.mbedtls_ssl_hs_buffer], ptr %13, i64 0, i64 %15
  store ptr %16, ptr %6, align 8, !tbaa !145
  %17 = load i8, ptr %4, align 1, !tbaa !38
  %18 = zext i8 %17 to i32
  %19 = icmp sge i32 %18, 4
  br i1 %19, label %20, label %21

20:                                               ; preds = %2
  store i32 1, ptr %7, align 4
  br label %44

21:                                               ; preds = %2
  %22 = load ptr, ptr %6, align 8, !tbaa !145
  %23 = load i8, ptr %22, align 8
  %24 = and i8 %23, 1
  %25 = zext i8 %24 to i32
  %26 = icmp eq i32 %25, 1
  br i1 %26, label %27, label %43

27:                                               ; preds = %21
  %28 = load ptr, ptr %6, align 8, !tbaa !145
  %29 = getelementptr inbounds nuw %struct.mbedtls_ssl_hs_buffer, ptr %28, i32 0, i32 2
  %30 = load i64, ptr %29, align 8, !tbaa !149
  %31 = load ptr, ptr %5, align 8, !tbaa !136
  %32 = getelementptr inbounds nuw %struct.mbedtls_ssl_handshake_params, ptr %31, i32 0, i32 40
  %33 = getelementptr inbounds nuw %struct.anon, ptr %32, i32 0, i32 0
  %34 = load i64, ptr %33, align 8, !tbaa !151
  %35 = sub i64 %34, %30
  store i64 %35, ptr %33, align 8, !tbaa !151
  %36 = load ptr, ptr %6, align 8, !tbaa !145
  %37 = getelementptr inbounds nuw %struct.mbedtls_ssl_hs_buffer, ptr %36, i32 0, i32 1
  %38 = load ptr, ptr %37, align 8, !tbaa !152
  %39 = load ptr, ptr %6, align 8, !tbaa !145
  %40 = getelementptr inbounds nuw %struct.mbedtls_ssl_hs_buffer, ptr %39, i32 0, i32 2
  %41 = load i64, ptr %40, align 8, !tbaa !149
  call void @mbedtls_zeroize_and_free(ptr noundef %38, i64 noundef %41)
  %42 = load ptr, ptr %6, align 8, !tbaa !145
  call void @llvm.memset.p0.i64(ptr align 8 %42, i8 0, i64 24, i1 false)
  br label %43

43:                                               ; preds = %27, %21
  store i32 0, ptr %7, align 4
  br label %44

44:                                               ; preds = %43, %20
  call void @llvm.lifetime.end.p0(i64 8, ptr %6) #11
  call void @llvm.lifetime.end.p0(i64 8, ptr %5) #11
  %45 = load i32, ptr %7, align 4
  switch i32 %45, label %47 [
    i32 0, label %46
    i32 1, label %46
  ]

46:                                               ; preds = %44, %44
  ret void

47:                                               ; preds = %44
  unreachable
}

; Function Attrs: inlinehint nounwind uwtable
define internal i32 @mbedtls_ssl_is_handshake_over(ptr noundef %0) #4 {
  %2 = alloca ptr, align 8
  store ptr %0, ptr %2, align 8, !tbaa !3
  %3 = load ptr, ptr %2, align 8, !tbaa !3
  %4 = getelementptr inbounds nuw %struct.mbedtls_ssl_context, ptr %3, i32 0, i32 1
  %5 = load i32, ptr %4, align 8, !tbaa !93
  %6 = icmp sge i32 %5, 27
  %7 = zext i1 %6 to i32
  ret i32 %7
}

; Function Attrs: nounwind uwtable
define hidden i32 @mbedtls_ssl_update_handshake_status(ptr noundef %0) #0 {
  %2 = alloca i32, align 4
  %3 = alloca ptr, align 8
  %4 = alloca i32, align 4
  %5 = alloca ptr, align 8
  %6 = alloca i32, align 4
  %7 = alloca i32, align 4
  %8 = alloca ptr, align 8
  store ptr %0, ptr %3, align 8, !tbaa !3
  call void @llvm.lifetime.start.p0(i64 4, ptr %4) #11
  store i32 -110, ptr %4, align 4, !tbaa !8
  call void @llvm.lifetime.start.p0(i64 8, ptr %5) #11
  %9 = load ptr, ptr %3, align 8, !tbaa !3
  %10 = getelementptr inbounds nuw %struct.mbedtls_ssl_context, ptr %9, i32 0, i32 16
  %11 = load ptr, ptr %10, align 8, !tbaa !81
  store ptr %11, ptr %5, align 8, !tbaa !136
  %12 = load ptr, ptr %3, align 8, !tbaa !3
  %13 = call i32 @mbedtls_ssl_is_handshake_over(ptr noundef %12)
  %14 = icmp eq i32 %13, 0
  br i1 %14, label %15, label %39

15:                                               ; preds = %1
  %16 = load ptr, ptr %5, align 8, !tbaa !136
  %17 = icmp ne ptr %16, null
  br i1 %17, label %18, label %39

18:                                               ; preds = %15
  %19 = load ptr, ptr %3, align 8, !tbaa !3
  %20 = getelementptr inbounds nuw %struct.mbedtls_ssl_context, ptr %19, i32 0, i32 16
  %21 = load ptr, ptr %20, align 8, !tbaa !81
  %22 = getelementptr inbounds nuw %struct.mbedtls_ssl_handshake_params, ptr %21, i32 0, i32 11
  %23 = load ptr, ptr %22, align 8, !tbaa !140
  %24 = load ptr, ptr %3, align 8, !tbaa !3
  %25 = load ptr, ptr %3, align 8, !tbaa !3
  %26 = getelementptr inbounds nuw %struct.mbedtls_ssl_context, ptr %25, i32 0, i32 31
  %27 = load ptr, ptr %26, align 8, !tbaa !135
  %28 = load ptr, ptr %3, align 8, !tbaa !3
  %29 = getelementptr inbounds nuw %struct.mbedtls_ssl_context, ptr %28, i32 0, i32 40
  %30 = load i64, ptr %29, align 8, !tbaa !144
  %31 = call i32 %23(ptr noundef %24, ptr noundef %27, i64 noundef %30)
  store i32 %31, ptr %4, align 4, !tbaa !8
  %32 = load i32, ptr %4, align 4, !tbaa !8
  %33 = icmp ne i32 %32, 0
  br i1 %33, label %34, label %38

34:                                               ; preds = %18
  %35 = load ptr, ptr %3, align 8, !tbaa !3
  %36 = load i32, ptr %4, align 4, !tbaa !8
  call void @mbedtls_debug_print_ret(ptr noundef %35, i32 noundef 1, ptr noundef @.str, i32 noundef 3312, ptr noundef @.str.77, i32 noundef %36)
  %37 = load i32, ptr %4, align 4, !tbaa !8
  store i32 %37, ptr %2, align 4
  store i32 1, ptr %6, align 4
  br label %78

38:                                               ; preds = %18
  br label %39

39:                                               ; preds = %38, %15, %1
  %40 = load ptr, ptr %3, align 8, !tbaa !3
  %41 = getelementptr inbounds nuw %struct.mbedtls_ssl_context, ptr %40, i32 0, i32 0
  %42 = load ptr, ptr %41, align 8, !tbaa !23
  %43 = getelementptr inbounds nuw %struct.mbedtls_ssl_config, ptr %42, i32 0, i32 3
  %44 = load i8, ptr %43, align 1, !tbaa !24
  %45 = zext i8 %44 to i32
  %46 = icmp eq i32 %45, 1
  br i1 %46, label %47, label %77

47:                                               ; preds = %39
  %48 = load ptr, ptr %3, align 8, !tbaa !3
  %49 = getelementptr inbounds nuw %struct.mbedtls_ssl_context, ptr %48, i32 0, i32 16
  %50 = load ptr, ptr %49, align 8, !tbaa !81
  %51 = icmp ne ptr %50, null
  br i1 %51, label %52, label %77

52:                                               ; preds = %47
  call void @llvm.lifetime.start.p0(i64 4, ptr %7) #11
  call void @llvm.lifetime.start.p0(i64 8, ptr %8) #11
  %53 = load ptr, ptr %5, align 8, !tbaa !136
  %54 = getelementptr inbounds nuw %struct.mbedtls_ssl_handshake_params, ptr %53, i32 0, i32 45
  %55 = load i32, ptr %54, align 8, !tbaa !131
  %56 = add i32 %55, 1
  store i32 %56, ptr %54, align 8, !tbaa !131
  %57 = load ptr, ptr %3, align 8, !tbaa !3
  call void @ssl_buffering_free_slot(ptr noundef %57, i8 noundef zeroext 0)
  store i32 0, ptr %7, align 4, !tbaa !8
  %58 = load ptr, ptr %5, align 8, !tbaa !136
  %59 = getelementptr inbounds nuw %struct.mbedtls_ssl_handshake_params, ptr %58, i32 0, i32 40
  %60 = getelementptr inbounds nuw %struct.anon, ptr %59, i32 0, i32 2
  %61 = getelementptr inbounds [4 x %struct.mbedtls_ssl_hs_buffer], ptr %60, i64 0, i64 0
  store ptr %61, ptr %8, align 8, !tbaa !145
  br label %62

62:                                               ; preds = %70, %52
  %63 = load i32, ptr %7, align 4, !tbaa !8
  %64 = add i32 %63, 1
  %65 = icmp ult i32 %64, 4
  br i1 %65, label %66, label %75

66:                                               ; preds = %62
  %67 = load ptr, ptr %8, align 8, !tbaa !145
  %68 = load ptr, ptr %8, align 8, !tbaa !145
  %69 = getelementptr inbounds %struct.mbedtls_ssl_hs_buffer, ptr %68, i64 1
  call void @llvm.memcpy.p0.p0.i64(ptr align 8 %67, ptr align 8 %69, i64 24, i1 false), !tbaa.struct !147
  br label %70

70:                                               ; preds = %66
  %71 = load i32, ptr %7, align 4, !tbaa !8
  %72 = add i32 %71, 1
  store i32 %72, ptr %7, align 4, !tbaa !8
  %73 = load ptr, ptr %8, align 8, !tbaa !145
  %74 = getelementptr inbounds nuw %struct.mbedtls_ssl_hs_buffer, ptr %73, i32 1
  store ptr %74, ptr %8, align 8, !tbaa !145
  br label %62, !llvm.loop !148

75:                                               ; preds = %62
  %76 = load ptr, ptr %8, align 8, !tbaa !145
  call void @llvm.memset.p0.i64(ptr align 8 %76, i8 0, i64 24, i1 false)
  call void @llvm.lifetime.end.p0(i64 8, ptr %8) #11
  call void @llvm.lifetime.end.p0(i64 4, ptr %7) #11
  br label %77

77:                                               ; preds = %75, %47, %39
  store i32 0, ptr %2, align 4
  store i32 1, ptr %6, align 4
  br label %78

78:                                               ; preds = %77, %34
  call void @llvm.lifetime.end.p0(i64 8, ptr %5) #11
  call void @llvm.lifetime.end.p0(i64 4, ptr %4) #11
  %79 = load i32, ptr %2, align 4
  ret i32 %79
}