; Function Attrs: nounwind uwtable
define hidden i32 @mbedtls_ssl_update_handshake_status(ptr noundef %0) local_unnamed_addr #0 {
  %2 = getelementptr inbounds nuw i8, ptr %0, i64 112
  %3 = load ptr, ptr %2, align 8, !tbaa !75
  %4 = getelementptr i8, ptr %0, i64 8
  %.val = load i32, ptr %4, align 8, !tbaa !74
  %5 = icmp slt i32 %.val, 27
  %6 = icmp ne ptr %3, null
  %or.cond = select i1 %5, i1 %6, i1 false
  br i1 %or.cond, label %7, label %16

7:                                                ; preds = %1
  %8 = getelementptr inbounds nuw i8, ptr %3, i64 24
  %9 = load ptr, ptr %8, align 8, !tbaa !140
  %10 = getelementptr inbounds nuw i8, ptr %0, i64 232
  %11 = load ptr, ptr %10, align 8, !tbaa !137
  %12 = getelementptr inbounds nuw i8, ptr %0, i64 304
  %13 = load i64, ptr %12, align 8, !tbaa !143
  %14 = tail call i32 %9(ptr noundef nonnull %0, ptr noundef %11, i64 noundef %13) #19
  %.not = icmp eq i32 %14, 0
  br i1 %.not, label %16, label %15

15:                                               ; preds = %7
  tail call void @mbedtls_debug_print_ret(ptr noundef nonnull %0, i32 noundef 1, ptr noundef nonnull @.str, i32 noundef 3312, ptr noundef nonnull @.str.77, i32 noundef %14) #19
  br label %39

16:                                               ; preds = %7, %1
  %17 = load ptr, ptr %0, align 8, !tbaa !18
  %18 = getelementptr inbounds nuw i8, ptr %17, i64 9
  %19 = load i8, ptr %18, align 1, !tbaa !19
  %20 = icmp eq i8 %19, 1
  br i1 %20, label %21, label %39

21:                                               ; preds = %16
  %22 = load ptr, ptr %2, align 8, !tbaa !75
  %.not27 = icmp eq ptr %22, null
  br i1 %.not27, label %39, label %23

23:                                               ; preds = %21
  %24 = getelementptr inbounds nuw i8, ptr %3, i64 1888
  %25 = load i32, ptr %24, align 8, !tbaa !126
  %26 = add i32 %25, 1
  store i32 %26, ptr %24, align 8, !tbaa !126
  %27 = getelementptr inbounds nuw i8, ptr %22, i64 1752
  %28 = load i8, ptr %27, align 8
  %29 = and i8 %28, 1
  %.not.i = icmp eq i8 %29, 0
  br i1 %.not.i, label %ssl_buffering_free_slot.exit, label %30

30:                                               ; preds = %23
  %31 = getelementptr inbounds nuw i8, ptr %22, i64 1736
  %32 = getelementptr inbounds nuw i8, ptr %22, i64 1768
  %33 = load i64, ptr %32, align 8, !tbaa !132
  %34 = load i64, ptr %31, align 8, !tbaa !131
  %35 = sub i64 %34, %33
  store i64 %35, ptr %31, align 8, !tbaa !131
  %36 = getelementptr inbounds nuw i8, ptr %22, i64 1760
  %37 = load ptr, ptr %36, align 8, !tbaa !134
  tail call void @mbedtls_zeroize_and_free(ptr noundef %37, i64 noundef %33) #19
  tail call void @llvm.memset.p0.i64(ptr noundef nonnull align 8 dereferenceable(24) %27, i8 0, i64 24, i1 false)
  br label %ssl_buffering_free_slot.exit

ssl_buffering_free_slot.exit:                     ; preds = %23, %30
  %38 = getelementptr i8, ptr %3, i64 1752
  %scevgep = getelementptr i8, ptr %3, i64 1776
  tail call void @llvm.memmove.p0.p0.i64(ptr noundef nonnull align 8 dereferenceable(72) %38, ptr noundef nonnull align 8 dereferenceable(72) %scevgep, i64 72, i1 false)
  %scevgep30 = getelementptr i8, ptr %3, i64 1824
  tail call void @llvm.memset.p0.i64(ptr noundef nonnull align 8 dereferenceable(24) %scevgep30, i8 0, i64 24, i1 false)
  br label %39

39:                                               ; preds = %16, %21, %ssl_buffering_free_slot.exit, %15
  %.024 = phi i32 [ %14, %15 ], [ 0, %ssl_buffering_free_slot.exit ], [ 0, %21 ], [ 0, %16 ]
  ret i32 %.024
}